target datalayout = "e-m:e-p270:32:32-p271:32:32-p272:64:64-i64:64-i128:128-f80:128-n8:16:32:64-S128"
target triple = "x86_64-pc-linux-gnu"

%struct.Lexer = type { ptr, ptr, ptr, ptr, i32, i32, ptr, ptr, ptr, %struct.TokenData, %union.SourceSpan, i32, i32 }
%struct.TokenData = type { ptr, i64, %union.anon.86 }
%union.anon.86 = type { %struct.anon.89 }
%struct.anon.89 = type { %struct.Int128_, i8 }
%struct.Int128_ = type { i64, i64 }
%union.SourceSpan = type { i64 }
%struct.File = type { i16, ptr, i64, ptr, ptr, ptr }
%struct.anon.0 = type { i16, i8, i8, i32 }
%struct.__va_list_tag = type { i32, i32, ptr, ptr }

; Function Attrs: nounwind uwtable
define internal i32 @check_row(i64 noundef %0, i32 noundef %1) #0 {
  %3 = alloca i64, align 8
  %4 = alloca i32, align 4
  store i64 %0, ptr %3, align 8
  store i32 %1, ptr %4, align 4
  %5 = load i64, ptr %3, align 8
  %6 = icmp sgt i64 %5, 255
  br i1 %6, label %7, label %8

7:                                                ; preds = %2
  br label %11

8:                                                ; preds = %2
  %9 = load i64, ptr %3, align 8
  %10 = trunc i64 %9 to i32
  br label %11

11:                                               ; preds = %8, %7
  %12 = phi i32 [ 0, %7 ], [ %10, %8 ]
  ret i32 %12
}

; Function Attrs: nounwind uwtable
define internal void @set_generic_token(ptr noundef %0, i32 noundef %1) #0 {
  %3 = alloca ptr, align 8
  %4 = alloca i32, align 4
  %5 = alloca i32, align 4
  %6 = alloca i32, align 4
  %7 = alloca i32, align 4
  store ptr %0, ptr %3, align 8
  store i32 %1, ptr %4, align 4
  %8 = load i32, ptr %4, align 4
  %9 = load ptr, ptr %3, align 8
  %10 = getelementptr inbounds %struct.Lexer, ptr %9, i32 0, i32 11
  store i32 %8, ptr %10, align 8
  %11 = load ptr, ptr %3, align 8
  %12 = getelementptr inbounds %struct.Lexer, ptr %11, i32 0, i32 3
  %13 = load ptr, ptr %12, align 8
  %14 = load ptr, ptr %3, align 8
  %15 = getelementptr inbounds %struct.Lexer, ptr %14, i32 0, i32 2
  %16 = load ptr, ptr %15, align 8
  %17 = ptrtoint ptr %13 to i64
  %18 = ptrtoint ptr %16 to i64
  %19 = sub i64 %17, %18
  %20 = load ptr, ptr %3, align 8
  %21 = getelementptr inbounds %struct.Lexer, ptr %20, i32 0, i32 9
  %22 = getelementptr inbounds %struct.TokenData, ptr %21, i32 0, i32 1
  store i64 %19, ptr %22, align 8
  %23 = load ptr, ptr %3, align 8
  %24 = getelementptr inbounds %struct.Lexer, ptr %23, i32 0, i32 2
  %25 = load ptr, ptr %24, align 8
  %26 = load ptr, ptr %3, align 8
  %27 = getelementptr inbounds %struct.Lexer, ptr %26, i32 0, i32 9
  %28 = getelementptr inbounds %struct.TokenData, ptr %27, i32 0, i32 0
  store ptr %25, ptr %28, align 8
  %29 = load ptr, ptr %3, align 8
  %30 = getelementptr inbounds %struct.Lexer, ptr %29, i32 0, i32 5
  %31 = load i32, ptr %30, align 4
  store i32 %31, ptr %5, align 4
  %32 = load i32, ptr %5, align 4
  %33 = load ptr, ptr %3, align 8
  %34 = getelementptr inbounds %struct.Lexer, ptr %33, i32 0, i32 4
  %35 = load i32, ptr %34, align 8
  %36 = icmp eq i32 %32, %35
  br i1 %36, label %37, label %62

37:                                               ; preds = %2
  %38 = load ptr, ptr %3, align 8
  %39 = getelementptr inbounds %struct.Lexer, ptr %38, i32 0, i32 2
  %40 = load ptr, ptr %39, align 8
  %41 = load ptr, ptr %3, align 8
  %42 = getelementptr inbounds %struct.Lexer, ptr %41, i32 0, i32 6
  %43 = load ptr, ptr %42, align 8
  %44 = ptrtoint ptr %40 to i64
  %45 = ptrtoint ptr %43 to i64
  %46 = sub i64 %44, %45
  %47 = add nsw i64 %46, 1
  %48 = load i32, ptr %5, align 4
  %49 = call zeroext i16 @check_col(i64 noundef %47, i32 noundef %48)
  %50 = zext i16 %49 to i32
  store i32 %50, ptr %6, align 4
  %51 = load ptr, ptr %3, align 8
  %52 = getelementptr inbounds %struct.Lexer, ptr %51, i32 0, i32 3
  %53 = load ptr, ptr %52, align 8
  %54 = load ptr, ptr %3, align 8
  %55 = getelementptr inbounds %struct.Lexer, ptr %54, i32 0, i32 2
  %56 = load ptr, ptr %55, align 8
  %57 = ptrtoint ptr %53 to i64
  %58 = ptrtoint ptr %56 to i64
  %59 = sub i64 %57, %58
  %60 = load i32, ptr %5, align 4
  %61 = call i32 @check_row(i64 noundef %59, i32 noundef %60)
  store i32 %61, ptr %7, align 4
  br label %76

62:                                               ; preds = %2
  %63 = load ptr, ptr %3, align 8
  %64 = getelementptr inbounds %struct.Lexer, ptr %63, i32 0, i32 2
  %65 = load ptr, ptr %64, align 8
  %66 = load ptr, ptr %3, align 8
  %67 = getelementptr inbounds %struct.Lexer, ptr %66, i32 0, i32 7
  %68 = load ptr, ptr %67, align 8
  %69 = ptrtoint ptr %65 to i64
  %70 = ptrtoint ptr %68 to i64
  %71 = sub i64 %69, %70
  %72 = add nsw i64 %71, 1
  %73 = load i32, ptr %5, align 4
  %74 = call zeroext i16 @check_col(i64 noundef %72, i32 noundef %73)
  %75 = zext i16 %74 to i32
  store i32 %75, ptr %6, align 4
  store i32 1, ptr %7, align 4
  br label %76

76:                                               ; preds = %62, %37
  %77 = load i32, ptr %7, align 4
  %78 = trunc i32 %77 to i8
  %79 = load ptr, ptr %3, align 8
  %80 = getelementptr inbounds %struct.Lexer, ptr %79, i32 0, i32 10
  %81 = getelementptr inbounds %struct.anon.0, ptr %80, i32 0, i32 1
  store i8 %78, ptr %81, align 2
  %82 = load i32, ptr %6, align 4
  %83 = trunc i32 %82 to i8
  %84 = load ptr, ptr %3, align 8
  %85 = getelementptr inbounds %struct.Lexer, ptr %84, i32 0, i32 10
  %86 = getelementptr inbounds %struct.anon.0, ptr %85, i32 0, i32 2
  store i8 %83, ptr %86, align 1
  %87 = load i32, ptr %5, align 4
  %88 = load ptr, ptr %3, align 8
  %89 = getelementptr inbounds %struct.Lexer, ptr %88, i32 0, i32 10
  %90 = getelementptr inbounds %struct.anon.0, ptr %89, i32 0, i32 3
  store i32 %87, ptr %90, align 4
  ret void
}

; Function Attrs: nounwind uwtable
define internal zeroext i16 @check_col(i64 noundef %0, i32 noundef %1) #0 {
  %3 = alloca i16, align 2
  %4 = alloca i64, align 8
  %5 = alloca i32, align 4
  store i64 %0, ptr %4, align 8
  store i32 %1, ptr %5, align 4
  %6 = load i64, ptr %4, align 8
  %7 = icmp sgt i64 %6, 255
  br i1 %7, label %8, label %9

8:                                                ; preds = %2
  store i16 0, ptr %3, align 2
  br label %12

9:                                                ; preds = %2
  %10 = load i64, ptr %4, align 8
  %11 = trunc i64 %10 to i16
  store i16 %11, ptr %3, align 2
  br label %12

12:                                               ; preds = %9, %8
  %13 = load i16, ptr %3, align 2
  ret i16 %13
}

; Function Attrs: nounwind uwtable
define internal zeroext i1 @add_error_token_at(ptr noundef %0, ptr noundef %1, i32 noundef %2, ptr noundef %3, ...) #0 {
  %5 = alloca ptr, align 8
  %6 = alloca ptr, align 8
  %7 = alloca i32, align 4
  %8 = alloca ptr, align 8
  %9 = alloca [1 x %struct.__va_list_tag], align 16
  %10 = alloca i32, align 4
  %11 = alloca %union.SourceSpan, align 8
  store ptr %0, ptr %5, align 8
  store ptr %1, ptr %6, align 8
  store i32 %2, ptr %7, align 4
  store ptr %3, ptr %8, align 8
  %12 = getelementptr inbounds [1 x %struct.__va_list_tag], ptr %9, i64 0, i64 0
  call void @llvm.va_start.p0(ptr %12)
  %13 = load ptr, ptr %5, align 8
  %14 = getelementptr inbounds %struct.Lexer, ptr %13, i32 0, i32 4
  %15 = load i32, ptr %14, align 8
  store i32 %15, ptr %10, align 4
  %16 = load i32, ptr %7, align 4
  %17 = icmp ugt i32 %16, 255
  br i1 %17, label %18, label %19

18:                                               ; preds = %4
  store i32 0, ptr %7, align 4
  br label %19

19:                                               ; preds = %18, %4
  %20 = getelementptr inbounds %struct.anon.0, ptr %11, i32 0, i32 0
  %21 = load ptr, ptr %5, align 8
  %22 = getelementptr inbounds %struct.Lexer, ptr %21, i32 0, i32 8
  %23 = load ptr, ptr %22, align 8
  %24 = getelementptr inbounds %struct.File, ptr %23, i32 0, i32 0
  %25 = load i16, ptr %24, align 8
  store i16 %25, ptr %20, align 8
  %26 = getelementptr inbounds %struct.anon.0, ptr %11, i32 0, i32 1
  %27 = load i32, ptr %7, align 4
  %28 = trunc i32 %27 to i8
  store i8 %28, ptr %26, align 2
  %29 = getelementptr inbounds %struct.anon.0, ptr %11, i32 0, i32 2
  %30 = load ptr, ptr %6, align 8
  %31 = load ptr, ptr %5, align 8
  %32 = getelementptr inbounds %struct.Lexer, ptr %31, i32 0, i32 6
  %33 = load ptr, ptr %32, align 8
  %34 = ptrtoint ptr %30 to i64
  %35 = ptrtoint ptr %33 to i64
  %36 = sub i64 %34, %35
  %37 = add nsw i64 %36, 1
  %38 = load i32, ptr %10, align 4
  %39 = call zeroext i16 @check_col(i64 noundef %37, i32 noundef %38)
  %40 = trunc i16 %39 to i8
  store i8 %40, ptr %29, align 1
  %41 = getelementptr inbounds %struct.anon.0, ptr %11, i32 0, i32 3
  %42 = load i32, ptr %10, align 4
  store i32 %42, ptr %41, align 4
  %43 = load ptr, ptr %8, align 8
  %44 = getelementptr inbounds [1 x %struct.__va_list_tag], ptr %9, i64 0, i64 0
  %45 = getelementptr inbounds %union.SourceSpan, ptr %11, i32 0, i32 0
  %46 = load i64, ptr %45, align 8
  call void @sema_verror_range(i64 %46, ptr noundef %43, ptr noundef %44)
  %47 = getelementptr inbounds [1 x %struct.__va_list_tag], ptr %9, i64 0, i64 0
  call void @llvm.va_end.p0(ptr %47)
  %48 = load ptr, ptr %5, align 8
  call void @set_generic_token(ptr noundef %48, i32 noundef 0)
  ret i1 false
}